(lp0
(VElevator
p1
I25915
tp2
a(VCats Allowed
p3
I23540
tp4
a(VHardwood Floors
p5
I23527
tp6
a(VDogs Allowed
p7
I22035
tp8
a(VDoorman
p9
I20898
tp10
a(VDishwasher
p11
I20426
tp12
a(VNo Fee
p13
I18062
tp14
a(VLaundry in Building
p15
I16344
tp16
a(VFitness Center
p17
I13252
tp18
a(VPre-War
p19
I9148
tp20
a(VLaundry in Unit
p21
I8738
tp22
a(VRoof Deck
p23
I6542
tp24
a(VOutdoor Space
p25
I5268
tp26
a(VDining Room
p27
I5136
tp28
a(VHigh Speed Internet
p29
I4299
tp30
a(VBalcony
p31
I2992
tp32
a(VSwimming Pool
p33
I2730
tp34
a(VLaundry In Building
p35
I2593
tp36
a(VNew Construction
p37
I2559
tp38
a(VTerrace
p39
I2283
tp40
a.