(lp0
(VElevator
p1
I25915
tp2
a(VCats Allowed
p3
I23540
tp4
a(VHardwood Floors
p5
I23527
tp6
a(VDogs Allowed
p7
I22035
tp8
a(VDoorman
p9
I20898
tp10
a(VDishwasher
p11
I20426
tp12
a(VNo Fee
p13
I18062
tp14
a(VLaundry in Building
p15
I16344
tp16
a(VFitness Center
p17
I13252
tp18
a(VPre-War
p19
I9148
tp20
a(VLaundry in Unit
p21
I8738
tp22
a(VRoof Deck
p23
I6542
tp24
a(VOutdoor Space
p25
I5268
tp26
a(VDining Room
p27
I5136
tp28
a(VHigh Speed Internet
p29
I4299
tp30
a(VBalcony
p31
I2992
tp32
a(VSwimming Pool
p33
I2730
tp34
a(VLaundry In Building
p35
I2593
tp36
a(VNew Construction
p37
I2559
tp38
a(VTerrace
p39
I2283
tp40
a(VExclusive
p41
I2167
tp42
a(VLoft
p43
I2100
tp44
a(VGarden/Patio
p45
I1943
tp46
a(VWheelchair Access
p47
I1358
tp48
a(VCommon Outdoor Space
p49
I1293
tp50
a(VHARDWOOD
p51
I914
tp52
a(VFireplace
p53
I912
tp54
a(VSIMPLEX
p55
I908
tp56
a(Vprewar
p57
I855
tp58
a(VLOWRISE
p59
I789
tp60
a(VGarage
p61
I745
tp62
a(VLaundry Room
p63
I719
tp64
a(VReduced Fee
p65
I699
tp66
a(VLaundry In Unit
p67
I697
tp68
a(VFurnished
p69
I689
tp70
a(VMulti-Level
p71
I622
tp72
a(VPrivate Outdoor Space
p73
I508
tp74
a(VPrewar
p75
I494
tp76
a(VPublicOutdoor
p77
I423
tp78
a(VParking Space
p79
I418
tp80
a(VRoof-deck
p81
I397
tp82
a(Vdishwasher
p83
I378
tp84
a(VHigh Ceilings
p85
I362
tp86
a(Velevator
p87
I357
tp88
a(VRenovated
p89
I323
tp90
a(VPool
p91
I282
tp92
a(VLAUNDRY
p93
I256
tp94
a(VGreen Building
p95
I246
tp96
a(VHIGH CEILINGS
p97
I235
tp98
a(VLIVE IN SUPER
p99
I217
tp100
a(VHigh Ceiling
p101
I200
tp102
a(VWasher in Unit
p103
I186
tp104
a(VDryer in Unit
p105
I186
tp106
a(VStorage
p107
I170
tp108
a(VStainless Steel Appliances
p109
I170
tp110
a(VOn-site laundry
p111
I168
tp112
a(VConcierge
p113
I166
tp114
a(VNewly renovated
p115
I154
tp116
a(VOn-site Laundry
p117
I148
tp118
a(VHardwood
p119
I144
tp120
a(VLive In Super
p121
I144
tp122
a(VLight
p123
I144
tp124
a(VOn-site Garage
p125
I142
tp126
a(VWasher/Dryer
p127
I133
tp128
a(VGranite Kitchen
p129
I116
tp130
a(VGym/Fitness
p131
I115
tp132
a(VPets on approval
p133
I107
tp134
a(VMarble Bath
p135
I106
tp136
a(VWalk in Closet(s)
p137
I105
tp138
a(VSubway
p139
I100
tp140
a(VResidents Lounge
p141
I98
tp142
a(VPatio
p143
I98
tp144
a(VValet
p145
I94
tp146
a(VCommon parking/Garage
p147
I91
tp148
a(VLive-in superintendent
p149
I90
tp150
a(VFull-time doorman
p151
I84
tp152
a(VParking
p153
I83
tp154
a(VEAT IN KITCHEN
p155
I82
tp156
a(VLive-in Super
p157
I82
tp158
a(VWiFi Access
p159
I81
tp160
a(VHIGHRISE
p161
I80
tp162
a(VLounge
p163
I77
tp164
a(VShort Term Allowed
p165
I76
tp166
a(VEXPOSED BRICK
p167
I75
tp168
a(VChildrens Playroom
p169
I74
tp170
a(Vdoorman
p171
I69
tp172
a(VGarden
p173
I69
tp174
a(VBike room
p175
I67
tp176
a(VNo pets
p177
I67
tp178
a(VCentral A/C
p179
I63
tp180
a(VDuplex
p181
I60
tp182
a(VLuxury building
p183
I58
tp184
a(VResidents Garden
p185
I56
tp186
a(Vbalcony
p187
I56
tp188
a(VROOFDECK
p189
I55
tp190
a(VACTUAL APT. PHOTOS
p191
I55
tp192
a(VCommon roof deck
p193
I53
tp194
a(VOutdoor Areas
p195
I52
tp196
a(VNew construction
p197
I48
tp198
a(VIndoor Pool
p199
I48
tp200
a.